; Function Attrs: nounwind uwtable
define i32 @dectodbl(ptr noundef %0, ptr noundef %1) local_unnamed_addr #0 {
  %3 = tail call ptr @PGTYPESnumeric_new() #16
  %4 = icmp eq ptr %3, null
  br i1 %4, label %9, label %5

5:                                                ; preds = %2
  %6 = tail call i32 @PGTYPESnumeric_from_decimal(ptr noundef %0, ptr noundef nonnull %3) #16
  %.not = icmp eq i32 %6, 0
  br i1 %.not, label %7, label %.sink.split

7:                                                ; preds = %5
  %8 = tail call i32 @PGTYPESnumeric_to_double(ptr noundef nonnull %3, ptr noundef %1) #16
  br label %.sink.split

.sink.split:                                      ; preds = %5, %7
  %.0.ph = phi i32 [ %8, %7 ], [ -1211, %5 ]
  tail call void @PGTYPESnumeric_free(ptr noundef nonnull %3) #16
  br label %9

9:                                                ; preds = %.sink.split, %2
  %.0 = phi i32 [ -1211, %2 ], [ %.0.ph, %.sink.split ]
  ret i32 %.0
}